target datalayout = "e-m:e-p270:32:32-p271:32:32-p272:64:64-i64:64-i128:128-f80:128-n8:16:32:64-S128"
target triple = "x86_64-unknown-linux-gnu"

%"class.std::__cxx11::basic_string" = type { %"struct.std::__cxx11::basic_string<char>::_Alloc_hider", i64, %union.anon }
%"struct.std::__cxx11::basic_string<char>::_Alloc_hider" = type { ptr }
%union.anon = type { i64, [8 x i8] }

@.str = private unnamed_addr constant [9 x i8] c"Missing \00", align 1
@.str.1 = private unnamed_addr constant [5 x i8] c"Bad \00", align 1

; Function Attrs: mustprogress uwtable
define linkonce_odr dso_local void @_ZStplIcSt11char_traitsIcESaIcEENSt7__cxx1112basic_stringIT_T0_T1_EEPKS5_OS8_(ptr noalias sret(%"class.std::__cxx11::basic_string") align 8 %agg.result, ptr noundef %__lhs, ptr noundef nonnull align 8 dereferenceable(32) %__rhs) #0 comdat {
entry:
  %result.ptr = alloca ptr, align 8
  %__lhs.addr = alloca ptr, align 8
  %__rhs.addr = alloca ptr, align 8
  store ptr %agg.result, ptr %result.ptr, align 8
  store ptr %__lhs, ptr %__lhs.addr, align 8
  store ptr %__rhs, ptr %__rhs.addr, align 8
  %0 = load ptr, ptr %__rhs.addr, align 8
  %1 = load ptr, ptr %__lhs.addr, align 8
  %call = call noundef nonnull align 8 dereferenceable(32) ptr @_ZNSt7__cxx1112basic_stringIcSt11char_traitsIcESaIcEE6insertEmPKc(ptr noundef nonnull align 8 dereferenceable(32) %0, i64 noundef 0, ptr noundef %1)
  call void @_ZNSt7__cxx1112basic_stringIcSt11char_traitsIcESaIcEEC1EOS4_(ptr noundef nonnull align 8 dereferenceable(32) %agg.result, ptr noundef nonnull align 8 dereferenceable(32) %call) #11
  ret void
}

; Function Attrs: mustprogress uwtable
define dso_local noundef i32 @_ZN3net10ReadUint32ERKNS_22CryptoHandshakeMessageEjNS_18QuicConfigPresenceEjPjPNSt7__cxx1112basic_stringIcSt11char_traitsIcESaIcEEE(ptr noundef nonnull align 8 dereferenceable(72) %msg, i32 noundef %tag, i32 noundef %presence, i32 noundef %default_value, ptr noundef %out, ptr noundef %error_details) #0 personality ptr @__gxx_personality_v0 {
entry:
  %msg.addr = alloca ptr, align 8
  %tag.addr = alloca i32, align 4
  %presence.addr = alloca i32, align 4
  %default_value.addr = alloca i32, align 4
  %out.addr = alloca ptr, align 8
  %error_details.addr = alloca ptr, align 8
  %error = alloca i32, align 4
  %ref.tmp = alloca %"class.std::__cxx11::basic_string", align 8
  %ref.tmp1 = alloca %"class.std::__cxx11::basic_string", align 8
  %exn.slot = alloca ptr, align 8
  %ehselector.slot = alloca i32, align 4
  %ref.tmp4 = alloca %"class.std::__cxx11::basic_string", align 8
  %ref.tmp5 = alloca %"class.std::__cxx11::basic_string", align 8
  store ptr %msg, ptr %msg.addr, align 8
  store i32 %tag, ptr %tag.addr, align 4
  store i32 %presence, ptr %presence.addr, align 4
  store i32 %default_value, ptr %default_value.addr, align 4
  store ptr %out, ptr %out.addr, align 8
  store ptr %error_details, ptr %error_details.addr, align 8
  %0 = load ptr, ptr %msg.addr, align 8
  %1 = load i32, ptr %tag.addr, align 4
  %2 = load ptr, ptr %out.addr, align 8
  %call = call noundef i32 @_ZNK3net22CryptoHandshakeMessage9GetUint32EjPj(ptr noundef nonnull align 8 dereferenceable(72) %0, i32 noundef %1, ptr noundef %2)
  store i32 %call, ptr %error, align 4
  %3 = load i32, ptr %error, align 4
  switch i32 %3, label %sw.default [
    i32 35, label %sw.bb
    i32 0, label %sw.bb3
  ]

sw.bb:                                            ; preds = %entry
  %4 = load i32, ptr %presence.addr, align 4
  %cmp = icmp eq i32 %4, 1
  br i1 %cmp, label %if.then, label %if.end

if.then:                                          ; preds = %sw.bb
  %5 = load i32, ptr %tag.addr, align 4
  call void @_ZN3net9QuicUtils11TagToStringB5cxx11Ej(ptr sret(%"class.std::__cxx11::basic_string") align 8 %ref.tmp1, i32 noundef %5)
  invoke void @_ZStplIcSt11char_traitsIcESaIcEENSt7__cxx1112basic_stringIT_T0_T1_EEPKS5_OS8_(ptr sret(%"class.std::__cxx11::basic_string") align 8 %ref.tmp, ptr noundef @.str, ptr noundef nonnull align 8 dereferenceable(32) %ref.tmp1)
          to label %invoke.cont unwind label %lpad

invoke.cont:                                      ; preds = %if.then
  %6 = load ptr, ptr %error_details.addr, align 8
  %call2 = call noundef nonnull align 8 dereferenceable(32) ptr @_ZNSt7__cxx1112basic_stringIcSt11char_traitsIcESaIcEEaSEOS4_(ptr noundef nonnull align 8 dereferenceable(32) %6, ptr noundef nonnull align 8 dereferenceable(32) %ref.tmp) #11
  call void @_ZNSt7__cxx1112basic_stringIcSt11char_traitsIcESaIcEED1Ev(ptr noundef nonnull align 8 dereferenceable(32) %ref.tmp) #11
  call void @_ZNSt7__cxx1112basic_stringIcSt11char_traitsIcESaIcEED1Ev(ptr noundef nonnull align 8 dereferenceable(32) %ref.tmp1) #11
  br label %sw.epilog

lpad:                                             ; preds = %if.then
  %7 = landingpad { ptr, i32 }
          cleanup
  %8 = extractvalue { ptr, i32 } %7, 0
  store ptr %8, ptr %exn.slot, align 8
  %9 = extractvalue { ptr, i32 } %7, 1
  store i32 %9, ptr %ehselector.slot, align 4
  call void @_ZNSt7__cxx1112basic_stringIcSt11char_traitsIcESaIcEED1Ev(ptr noundef nonnull align 8 dereferenceable(32) %ref.tmp1) #11
  br label %eh.resume

if.end:                                           ; preds = %sw.bb
  store i32 0, ptr %error, align 4
  %10 = load i32, ptr %default_value.addr, align 4
  %11 = load ptr, ptr %out.addr, align 8
  store i32 %10, ptr %11, align 4
  br label %sw.epilog

sw.bb3:                                           ; preds = %entry
  br label %sw.epilog

sw.default:                                       ; preds = %entry
  %12 = load i32, ptr %tag.addr, align 4
  call void @_ZN3net9QuicUtils11TagToStringB5cxx11Ej(ptr sret(%"class.std::__cxx11::basic_string") align 8 %ref.tmp5, i32 noundef %12)
  invoke void @_ZStplIcSt11char_traitsIcESaIcEENSt7__cxx1112basic_stringIT_T0_T1_EEPKS5_OS8_(ptr sret(%"class.std::__cxx11::basic_string") align 8 %ref.tmp4, ptr noundef @.str.1, ptr noundef nonnull align 8 dereferenceable(32) %ref.tmp5)
          to label %invoke.cont7 unwind label %lpad6

invoke.cont7:                                     ; preds = %sw.default
  %13 = load ptr, ptr %error_details.addr, align 8
  %call8 = call noundef nonnull align 8 dereferenceable(32) ptr @_ZNSt7__cxx1112basic_stringIcSt11char_traitsIcESaIcEEaSEOS4_(ptr noundef nonnull align 8 dereferenceable(32) %13, ptr noundef nonnull align 8 dereferenceable(32) %ref.tmp4) #11
  call void @_ZNSt7__cxx1112basic_stringIcSt11char_traitsIcESaIcEED1Ev(ptr noundef nonnull align 8 dereferenceable(32) %ref.tmp4) #11
  call void @_ZNSt7__cxx1112basic_stringIcSt11char_traitsIcESaIcEED1Ev(ptr noundef nonnull align 8 dereferenceable(32) %ref.tmp5) #11
  br label %sw.epilog

lpad6:                                            ; preds = %sw.default
  %14 = landingpad { ptr, i32 }
          cleanup
  %15 = extractvalue { ptr, i32 } %14, 0
  store ptr %15, ptr %exn.slot, align 8
  %16 = extractvalue { ptr, i32 } %14, 1
  store i32 %16, ptr %ehselector.slot, align 4
  call void @_ZNSt7__cxx1112basic_stringIcSt11char_traitsIcESaIcEED1Ev(ptr noundef nonnull align 8 dereferenceable(32) %ref.tmp5) #11
  br label %eh.resume

sw.epilog:                                        ; preds = %invoke.cont7, %sw.bb3, %if.end, %invoke.cont
  %17 = load i32, ptr %error, align 4
  ret i32 %17

eh.resume:                                        ; preds = %lpad6, %lpad
  %exn = load ptr, ptr %exn.slot, align 8
  %sel = load i32, ptr %ehselector.slot, align 4
  %lpad.val = insertvalue { ptr, i32 } poison, ptr %exn, 0
  %lpad.val9 = insertvalue { ptr, i32 } %lpad.val, i32 %sel, 1
  resume { ptr, i32 } %lpad.val9
}