; Function Attrs: mustprogress uwtable
define dso_local noundef i32 @_ZN3net10ReadUint32ERKNS_22CryptoHandshakeMessageEjNS_18QuicConfigPresenceEjPjPNSt7__cxx1112basic_stringIcSt11char_traitsIcESaIcEEE(ptr noundef nonnull align 8 dereferenceable(72) %msg, i32 noundef %tag, i32 noundef %presence, i32 noundef %default_value, ptr noundef %out, ptr noundef %error_details) local_unnamed_addr #0 personality ptr @__gxx_personality_v0 {
entry:
  %ref.tmp = alloca %"class.std::__cxx11::basic_string", align 8
  %ref.tmp1 = alloca %"class.std::__cxx11::basic_string", align 8
  %ref.tmp4 = alloca %"class.std::__cxx11::basic_string", align 8
  %ref.tmp5 = alloca %"class.std::__cxx11::basic_string", align 8
  %call = tail call noundef i32 @_ZNK3net22CryptoHandshakeMessage9GetUint32EjPj(ptr noundef nonnull align 8 dereferenceable(72) %msg, i32 noundef %tag, ptr noundef %out)
  switch i32 %call, label %sw.default [
    i32 35, label %sw.bb
    i32 0, label %sw.epilog
  ]

sw.bb:                                            ; preds = %entry
  %cmp = icmp eq i32 %presence, 1
  br i1 %cmp, label %if.then, label %if.end

if.then:                                          ; preds = %sw.bb
  call void @_ZN3net9QuicUtils11TagToStringB5cxx11Ej(ptr nonnull sret(%"class.std::__cxx11::basic_string") align 8 %ref.tmp1, i32 noundef %tag)
  %call.i7 = invoke noundef nonnull align 8 dereferenceable(32) ptr @_ZNSt7__cxx1112basic_stringIcSt11char_traitsIcESaIcEE6insertEmPKc(ptr noundef nonnull align 8 dereferenceable(32) %ref.tmp1, i64 noundef 0, ptr noundef nonnull @.str)
          to label %invoke.cont unwind label %lpad

invoke.cont:                                      ; preds = %if.then
  call void @_ZNSt7__cxx1112basic_stringIcSt11char_traitsIcESaIcEEC1EOS4_(ptr noundef nonnull align 8 dereferenceable(32) %ref.tmp, ptr noundef nonnull align 8 dereferenceable(32) %call.i7) #17
  %call2 = call noundef nonnull align 8 dereferenceable(32) ptr @_ZNSt7__cxx1112basic_stringIcSt11char_traitsIcESaIcEEaSEOS4_(ptr noundef nonnull align 8 dereferenceable(32) %error_details, ptr noundef nonnull align 8 dereferenceable(32) %ref.tmp) #17
  call void @_ZNSt7__cxx1112basic_stringIcSt11char_traitsIcESaIcEED1Ev(ptr noundef nonnull align 8 dereferenceable(32) %ref.tmp) #17
  call void @_ZNSt7__cxx1112basic_stringIcSt11char_traitsIcESaIcEED1Ev(ptr noundef nonnull align 8 dereferenceable(32) %ref.tmp1) #17
  br label %sw.epilog

lpad:                                             ; preds = %if.then
  %0 = landingpad { ptr, i32 }
          cleanup
  br label %eh.resume

if.end:                                           ; preds = %sw.bb
  store i32 %default_value, ptr %out, align 4
  br label %sw.epilog

sw.default:                                       ; preds = %entry
  call void @_ZN3net9QuicUtils11TagToStringB5cxx11Ej(ptr nonnull sret(%"class.std::__cxx11::basic_string") align 8 %ref.tmp5, i32 noundef %tag)
  %call.i8 = invoke noundef nonnull align 8 dereferenceable(32) ptr @_ZNSt7__cxx1112basic_stringIcSt11char_traitsIcESaIcEE6insertEmPKc(ptr noundef nonnull align 8 dereferenceable(32) %ref.tmp5, i64 noundef 0, ptr noundef nonnull @.str.1)
          to label %invoke.cont7 unwind label %lpad6

invoke.cont7:                                     ; preds = %sw.default
  call void @_ZNSt7__cxx1112basic_stringIcSt11char_traitsIcESaIcEEC1EOS4_(ptr noundef nonnull align 8 dereferenceable(32) %ref.tmp4, ptr noundef nonnull align 8 dereferenceable(32) %call.i8) #17
  %call8 = call noundef nonnull align 8 dereferenceable(32) ptr @_ZNSt7__cxx1112basic_stringIcSt11char_traitsIcESaIcEEaSEOS4_(ptr noundef nonnull align 8 dereferenceable(32) %error_details, ptr noundef nonnull align 8 dereferenceable(32) %ref.tmp4) #17
  call void @_ZNSt7__cxx1112basic_stringIcSt11char_traitsIcESaIcEED1Ev(ptr noundef nonnull align 8 dereferenceable(32) %ref.tmp4) #17
  call void @_ZNSt7__cxx1112basic_stringIcSt11char_traitsIcESaIcEED1Ev(ptr noundef nonnull align 8 dereferenceable(32) %ref.tmp5) #17
  br label %sw.epilog

lpad6:                                            ; preds = %sw.default
  %1 = landingpad { ptr, i32 }
          cleanup
  br label %eh.resume

sw.epilog:                                        ; preds = %entry, %invoke.cont7, %if.end, %invoke.cont
  %error.0 = phi i32 [ %call, %invoke.cont7 ], [ %call, %entry ], [ 35, %invoke.cont ], [ 0, %if.end ]
  ret i32 %error.0

eh.resume:                                        ; preds = %lpad6, %lpad
  %ref.tmp5.sink = phi ptr [ %ref.tmp5, %lpad6 ], [ %ref.tmp1, %lpad ]
  %.pn = phi { ptr, i32 } [ %1, %lpad6 ], [ %0, %lpad ]
  call void @_ZNSt7__cxx1112basic_stringIcSt11char_traitsIcESaIcEED1Ev(ptr noundef nonnull align 8 dereferenceable(32) %ref.tmp5.sink) #17
  resume { ptr, i32 } %.pn
}